(lp1
I147100
aI147600
aI147600
aI147700
aI147900
aI147900
aI147600
aI147600
aI147900
aI147800
aI147700
aI147900
aI148000
aI147900
aI147600
aI147500
aI147700
aI147900
aI148200
aI148000
aI148100
aI147900
aI148000
aI147800
aI148800
aI148800
aI148700
aI148900
aI148800
aI148400
aI148400
aI148600
aI148600
aI148500
aI148600
aI148700
aI148800
aI148800
aI149000
aI149000
aI149000
aI149100
aI149100
aI149100
aI149100
aI148900
aI148900
aI148700
aI148700
aI148700
aI148800
aI148800
aI148800
aI148800
aI148800
aI148800
aI148800
aI148800
aI148800
aI149000
aI148800
aI148700
aI148700
aI148700
aI148700
aI148700
aI148700
aI148700
aI148800
aI148800
aI148800
aI148800
aI149000
aI148700
aI148700
aI148600
aI148700
aI148900
aI148800
aI149000
aI149400
aI149400
aI149200
aI149000
aI149100
aI148800
aI148800
aI148800
aI148700
aI148800
aI148800
aI148800
aI148800
aI148700
aI148900
aI149000
aI148800
aI148800
aI148800
aI148900
aI148900
aI148900
aI148900
aI148900
aI148900
aI148900
aI148900
aI148900
aI148700
aI148700
aI148700
aI148800
aI148900
aI148900
aI148900
aI148900
aI148900
aI148600
aI148600
aI148700
aI148700
aI149000
aI149000
aI149000
aI148800
aI148800
aI148800
aI148800
aI148800
aI148800
aI148800
aI148800
aI148700
aI148800
aI148700
aI148700
aI148700
aI148800
aI148800
aI148800
aI148800
aI148800
aI148600
aI148600
aI148600
aI148600
aI148700
aI148600
aI148700
aI148700
aI148700
aI148400
aI148400
aI148800
aI148800
aI148800
aI148800
aI148900
aI148600
aI148600
aI148700
aI148500
aI148800
aI148900
aI149000
aI149000
aI148900
aI148900
aI149300
aI149200
aI149100
aI149100
aI148800
aI149500
aI149600
aI149200
aI149300
aI148700
aI149000
aI148900
aI147700
aI147600
aI147600
aI147600
aI147600
aI147300
aI147300
aI147300
aI147400
aI147400
aI147200
aI147200
aI147000
aI147000
aI146700
aI146700
aI146700
aI146700
aI146800
aI147000
aI147200
aI147200
aI147600
aI147600
aI147600
aI147400
aI147400
aI147400
aI147400
aI147400
aI147500
aI147500
aI147400
aI147500
aI147400
aI147400
aI147400
aI147400
aI147400
aI147900
aI147900
aI147900
aI147900
aI147900
aI147900
aI147900
aI147900
aI147900
aI147800
aI147600
aI147700
aI147000
aI147000
aI147000
aI147000
aI147100
aI147100
aI147000
aI147000
aI147000
aI147100
aI147100
aI147100
aI147100
aI146700
aI146700
aI146700
aI146600
aI146600
aI146200
aI146200
aI146100
aI145800
aI146100
aI146600
aI146600
aI146600
aI146800
aI146800
aI147100
aI146800
aI146600
aI146600
aI146700
aI146700
aI147300
aI147300
aI147500
aI147500
aI147800
aI147100
aI146900
aI146800
aI146600
aI146000
aI147000
aI147100
aI147100
aI147500
aI147400
aI147500
aI147400
aI147500
aI147700
aI147800
aI147900
aI148000
aI148000
aI147900
aI147900
aI148000
aI147800
aI147800
aI147800
aI148200
aI148200
aI148200
aI148300
aI148200
aI147800
aI147900
aI148400
aI148600
aI148700
aI148700
aI148500
aI148500
aI148500
aI148600
aI148600
aI148600
aI148400
aI148500
aI148600
aI148400
aI148800
aI148500
aI148500
aI148200
aI148300
aI148300
aI148600
aI148800
aI148800
aI148600
aI148800
aI149300
aI148800
aI148800
aI148800
aI149200
aI148900
aI149000
aI148700
aI148700
aI148500
aI148100
aI148000
aI148100
aI147800
aI147200
aI147200
aI147200
aI147200
aI147500
aI147100
aI147000
aI147200
aI147200
aI147300
aI147100
aI147200
aI147200
aI147100
aI146800
aI147100
aI147500
aI147400
aI147700
aI147700
aI147400
aI147400
aI147300
aI146500
aI146200
aI145500
aI146000
aI145700
aI145700
aI146500
aI146100
aI147000
aI147500
aI147500
aI147800
aI147900
aI147900
aI147800
aI148200
aI148400
aI148500
aI148600
aI148300
aI148600
aI148800
aI148800
aI148900
aI149100
aI149100
aI149100
aI149100
aI149100
aI149100
aI149100
aI148900
aI148800
aI149000
aI149200
aI149200
aI149200
aI149300
aI149300
aI149200
aI149700
aI149700
aI149400
aI149500
aI149300
aI149800
aI149700
aI149500
aI149200
aI149600
aI149000
aI150400
aI150500
aI150600
aI150500
aI150500
aI150500
aI150500
aI150400
aI150300
aI150400
aI150400
aI150400
aI150500
aI150500
aI150600
aI150300
aI150400
aI150500
aI150700
aI150500
aI150500
aI150500
aI150400
aI150400
aI150700
aI150800
aI150800
aI150800
aI150600
aI150600
aI150800
aI150800
aI150800
aI150800
aI150800
aI151100
aI151100
aI150700
aI150700
aI151000
aI150900
aI150900
aI150900
aI150800
aI151000
aI151000
aI151000
aI150600
aI150900
aI150800
aI150600
aI150600
aI150700
aI150300
aI150600
aI150200
aI150500
aI150500
aI150400
aI150300
aI150600
aI150600
aI150500
aI150600
aI150600
aI150300
aI150600
aI150300
aI150300
aI150600
aI150800
aI150700
aI150900
aI151000
aI151100
aI150300
aI151200
aI151200
aI151200
aI151000
aI151000
aI151000
aI151100
aI151000
aI151000
aI151200
aI151200
aI151200
aI151200
aI151200
aI151100
aI151100
aI151100
aI151200
aI151400
aI151400
aI151400
aI151300
aI151300
aI151300
aI151100
aI151300
aI151200
aI151100
aI151100
aI151400
aI151400
aI151400
aI151500
aI151500
aI151500
aI151500
aI151400
aI151400
aI151200
aI151500
aI151500
aI151200
aI151500
aI151300
aI151300
aI151400
aI151400
aI151300
aI151700
aI151700
aI152100
aI152100
aI152100
aI152400
aI152200
aI152400
aI152100
aI152100
aI151800
aI151700
aI151700
aI151500
aI151600
aI151600
aI152100
aI151400
aI151100
aI151100
aI151000
aI151000
aI151300
aI151300
aI150800
aI150900
aI150700
aI150700
aI150700
aI150500
aI150300
aI150300
aI150300
aI150400
aI150400
aI150400
aI150600
aI150700
aI150600
aI150600
aI150600
aI150600
aI150600
aI150400
aI150400
aI150500
aI150500
aI150500
aI150700
aI150700
aI150500
aI150700
aI150400
aI150300
aI150200
aI150200
aI150200
aI150200
aI150100
aI150100
aI150400
aI150300
aI150400
aI150400
aI150400
aI150400
aI150100
aI150200
aI150400
aI150500
aI150700
aI150500
aI150500
aI150500
aI150400
aI150500
aI150500
aI150600
aI150600
aI150600
aI150700
aI150700
aI150800
aI150900
aI150700
aI150800
aI150900
aI150900
aI150900
aI150900
aI150800
aI150800
aI150800
aI150900
aI150600
aI150900
aI151100
aI151300
aI151000
aI151200
aI151200
aI151100
aI151100
aI151100
aI151200
aI150900
aI151200
aI151400
aI151300
aI151500
aI150800
aI150800
aI150800
aI151100
aI150900
aI150900
aI151000
aI151200
aI151000
aI150800
aI150700
aI151000
aI151000
aI151100
aI150800
aI150700
aI150300
aI150300
aI150300
aI150700
aI150700
aI150800
aI150900
aI151000
aI151000
aI151300
aI151300
aI151200
aI151400
aI151200
aI151200
aI151400
aI151200
aI151200
aI151000
aI151200
aI151100
aI151100
aI151200
aI151100
aI151300
aI151100
aI151300
aI151000
aI151000
aI151000
aI151000
aI151300
aI151200
aI151400
aI151200
aI151200
aI151100
aI151100
aI151200
aI151200
aI151200
aI151400
aI151100
aI151200
aI151300
aI151300
aI151300
aI151300
aI151500
aI151500
aI151500
aI151000
aI151000
aI150800
aI150700
aI150700
aI150800
aI151100
aI151100
aI151100
aI151300
aI151300
aI151000
aI151000
aI150900
aI150900
aI151100
aI151000
aI151000
aI151000
aI151000
aI151100
aI151000
aI150900
aI150900
aI151000
aI151000
aI151400
aI151300
aI151200
aI151200
aI151300
aI151300
aI151300
aI151300
aI150800
aI150800
aI150800
aI151100
aI151100
aI150900
aI150400
aI150300
aI150800
aI150800
aI150900
aI150900
aI150900
aI150900
aI151000
aI151400
aI151400
aI150800
aI150900
aI150600
aI150200
aI150000
aI150000
aI150100
aI150100
aI150600
aI150600
aI150500
aI150700
aI150700
aI150800
aI151000
aI151000
aI151200
aI151200
aI151200
aI151200
aI151100
aI151100
aI151000
aI151000
aI150900
aI150900
aI150500
aI150500
aI150500
aI150900
aI150500
aI150500
aI150000
aI150200
aI150300
aI151000
aI151000
aI150900
aI151200
aI152300
aI151300
aI151000
aI150700
aI150800
aI151100
aI151100
aI150700
aI151200
aI151300
aI151900
aI151400
aI152000
aI151100
aI151100
aI151100
aI151100
aI151300
aI151200
aI150900
aI151100
aI150700
aI150800
aI150800
aI150800
aI151000
aI151300
aI151300
aI151400
aI151700
aI151200
aI151200
aI151400
aI151400
aI150700
aI151400
aI152400
aI151200
aI150600
aI149500
aI150700
aI151800
aI152400
aI152700
aI153100
aI152900
aI152900
aI152100
aI152400
aI152500
aI151400
aI153500
aI151400
aI151700
aI151800
aI152000
aI151800
aI151700
aI151900
aI152100
aI152000
aI152200
aI152200
aI152400
aI152000
aI151800
aI151900
aI152000
aI152100
aI152500
aI152000
aI151500
aI151500
aI151500
aI151200
aI151500
aI151700
aI151700
aI151600
aI151500
aI151800
aI151600
aI151800
aI151400
aI151400
aI151500
aI151500
aI151500
aI152200
aI152200
aI152200
aI152200
aI152100
aI152100
aI152200
aI152100
aI152100
aI152300
aI152400
aI152500
aI152400
aI152200
aI152200
aI152100
aI151900
aI152000
aI151900
aI151800
aI151400
aI151700
aI151700
aI151800
aI151900
aI152100
aI152200
aI152000
aI152000
aI152000
aI151900
aI151800
aI152100
aI152000
aI152200
aI152300
aI152000
aI151900
aI152000
aI152300
aI152300
aI152100
aI152000
aI152400
aI152400
aI152000
aI151900
aI151500
aI151500
aI151800
aI151700
aI151500
aI151600
aI151200
aI151000
aI150800
aI150900
aI150700
aI150700
aI150700
aI150800
aI150400
aI150200
aI150100
aI149900
aI150300
aI150400
aI151000
aI150900
aI150900
aI151300
aI151300
aI151300
aI151500
aI151300
aI151400
aI151500
aI151900
aI151900
aI152400
aI152400
aI152500
aI152400
aI152200
aI152000
aI151900
aI152000
aI151600
aI151800
aI151900
aI151900
aI151600
aI151400
aI151400
aI152000
aI151800
aI151800
aI152100
aI152100
aI151300
aI151300
aI151100
aI151300
aI151300
aI151300
aI151300
aI151000
aI151200
aI151000
aI151100
aI151500
aI151500
aI151500
aI151000
aI151100
aI151200
aI151200
aI151100
aI151400
aI151800
aI151600
aI151700
aI151700
aI151700
aI152300
aI152500
aI152400
aI152400
aI152900
aI152900
aI152700
aI152600
aI152800
aI152800
aI152800
aI153200
aI153000
aI152600
aI152800
aI151900
aI151200
aI152100
aI152000
aI151800
aI150700
aI150100
aI149800
aI150000
aI150200
aI150200
aI150600
aI150500
aI150900
aI151000
aI150500
aI150400
aI150100
aI150300
aI150500
aI150600
aI149800
aI149200
aI149600
aI147700
aI146300
aI146000
aI146400
aI146300
aI146300
aI146400
aI146400
aI146400
aI146300
aI146300
aI146300
aI146600
aI146000
aI146500
aI146700
aI146600
aI146600
aI146700
aI147000
aI146200
aI146700
aI145300
aI145300
aI145100
aI145100
aI146200
aI146000
aI147000
aI143700
aI149900
aI149900
aI149800
aI150500
aI150600
aI150700
aI151000
aI150700
aI150700
aI151100
aI151200
aI151000
aI151500
aI151500
aI151400
aI151700
aI151700
aI151600
aI151800
aI151800
aI151800
aI151800
aI151600
aI151800
aI151800
aI151800
aI151800
aI151800
aI152100
aI152100
aI152300
aI152100
aI152100
aI152100
aI151900
aI151900
aI151900
aI152000
aI152200
aI152300
aI151900
aI151800
aI151800
aI152200
aI152100
aI152400
aI152900
aI152900
aI152900
aI152900
aI153000
aI152600
aI152600
aI152900
aI152700
aI152600
aI152900
aI153000
aI153000
aI153000
aI152800
aI152700
aI152700
aI152700
aI152700
aI153000
aI153000
aI153000
aI153200
aI153200
aI153200
aI153000
aI152900
aI153000
aI152900
aI152700
aI153900
aI154700
aI155300
aI155400
aI154500
aI154700
aI154200
aI154100
aI154100
aI154100
aI154000
aI154000
aI153900
aI153900
aI153800
aI153700
aI153700
aI153900
aI153800
aI154000
aI153700
aI153800
aI153900
aI154000
aI154100
aI154200
aI153700
aI153800
aI153800
aI153500
aI153700
aI153800
aI153600
aI153500
aI153600
aI153100
aI153200
aI153300
aI153300
aI153400
aI153600
aI153500
aI153600
aI153600
aI153600
aI153600
aI153700
aI153600
aI153500
aI153200
aI153500
aI153500
aI153500
aI153500
aI153300
aI153500
aI153500
aI153600
aI153600
aI153700
aI153500
aI153600
aI153400
aI153400
aI153600
aI153800
aI153800
aI153900
aI153800
aI153600
aI153700
aI154400
aI154100
aI153900
aI153800
aI154000
aI154100
aI153900
aI154100
aI154000
aI152900
aI152500
aI152000
aI152000
aI151900
aI152000
aI151800
aI151800
aI151800
aI151900
aI152000
aI152100
aI152000
aI152000
aI152000
aI151800
aI151900
aI151900
aI152000
aI151700
aI151600
aI151400
aI151300
aI151200
aI151200
aI151400
aI151200
aI151300
aI151400
aI151300
aI151300
aI151100
aI151400
aI151400
aI151600
aI151500
aI151500
aI151600
aI151600
aI151300
aI151100
aI151200
aI151200
aI151000
aI151100
aI151100
aI151200
aI151200
aI151200
aI151200
aI151300
aI151200
aI151100
aI151100
aI151100
aI151200
aI151300
aI151100
aI151100
aI151100
aI150900
aI150900
aI150600
aI150500
aI150400
aI150500
aI150400
aI150300
aI150400
aI150500
aI150500
aI150400
aI150600
aI150600
aI150500
aI150400
aI150500
aI150600
aI150500
aI150200
aI150400
aI150300
aI150500
aI150400
aI150200
aI149900
aI150600
aI150600
aI150800
aI151300
aI151700
aI151600
aI151700
aI151800
aI151600
aI151500
aI151600
aI151300
aI151300
aI151300
aI151400
aI151800
aI151300
aI151400
aI151400
aI151300
aI150900
aI150900
aI150900
aI150900
aI150800
aI150800
aI150500
aI150500
aI150200
aI150500
aI150700
aI150400
aI150700
aI150700
aI150500
aI150500
aI150800
aI150700
aI150400
aI149900
aI149900
aI149900
aI149800
aI150000
aI150000
aI150100
aI150000
aI150100
aI150000
aI150000
aI150200
aI150200
aI150100
aI150100
aI150000
aI150000
aI150000
aI150100
aI149900
aI150000
aI150300
aI150200
aI149700
aI150100
aI149900
aI149700
aI150200
aI150600
aI150400
aI150300
aI150700
aI150500
aI150600
aI150700
aI150600
aI150600
aI150400
aI150700
aI150200
aI149700
aI149900
aI150000
aI150000
aI150000
aI149900
aI150200
aI150200
aI150300
aI150300
aI150800
aI150500
aI150600
aI150600
aI150500
aI150400
aI150700
aI150800
aI150600
aI150600
aI151500
aI151600
aI151400
aI151600
aI151700
aI151900
aI152100
aI151500
aI151500
aI151400
aI151400
aI151800
aI151900
aI151900
aI151400
aI151600
aI151600
aI151600
aI151600
aI151700
aI151400
aI151300
aI150400
aI150400
aI150300
aI150500
aI150200
aI150500
aI150700
aI150100
aI150100
aI150100
aI150000
aI150400
aI150100
aI150200
aI150500
aI150700
aI150500
aI150700
aI150800
aI150900
aI151200
aI150500
aI150900
aI151100
aI151100
aI151200
aI151700
aI151400
aI151700
aI151800
aI151800
aI151800
aI151900
aI151900
aI151900
aI151800
aI152100
aI152000
aI152100
aI152100
aI152000
aI152100
aI152500
aI152300
aI152100
aI151900
aI152000
aI151600
aI152000
aI152000
aI151700
aI151500
aI151500
aI151400
aI151300
aI151000
aI150900
aI151700
aI151900
aI152000
aI151900
aI151800
aI152000
aI151900
aI151800
aI151800
aI152000
aI152000
aI151700
aI151800
aI151900
aI152100
aI152100
aI152000
aI152200
aI152200
aI151900
aI152100
aI152100
aI151900
aI151900
aI151800
aI151800
aI151800
aI151900
aI152000
aI151700
aI151500
aI151300
aI151400
aI151200
aI151100
aI151100
aI151500
aI151600
aI151200
aI151600
aI151700
aI151800
aI151600
aI151500
aI151400
aI151300
aI151100
aI152000
aI151900
aI152000
aI152200
aI152300
aI152200
aI153000
aI153000
aI152700
aI152700
aI152900
aI152900
aI153000
aI153100
aI153100
aI153200
aI153500
aI153200
aI152900
aI153100
aI152900
aI152900
aI152700
aI152700
aI152700
aI152400
aI152400
aI152500
aI152600
aI152600
aI152300
aI152500
aI152300
aI152600
aI152400
aI152800
aI152800
aI153300
aI153000
aI152900
aI152700
aI152800
aI152900
aI152900
aI153000
aI153100
aI153200
aI152900
aI152900
aI153100
aI153400
aI153200
aI153300
aI153500
aI153400
aI153400
aI153100
aI152800
aI152600
aI152600
aI152600
aI152500
aI152200
aI152200
aI152300
aI153200
aI153200
aI153100
aI153100
aI153400
aI153200
aI153500
aI153600
aI153900
aI153800
aI153800
aI153600
aI153700
aI153800
aI153700
aI153600
aI153600
aI153800
aI153800
aI153600
aI153100
aI152500
aI151200
aI151400
aI151200
aI151300
aI151000
aI151200
aI151200
aI151500
aI151200
aI151200
aI151400
aI151400
aI151800
aI151600
aI151400
aI151400
aI151700
aI151400
aI151400
aI151300
aI151400
aI151600
aI151300
aI153400
aI153500
aI153700
aI153700
aI153600
aI153400
aI154000
aI153700
aI153900
aI153800
aI153800
aI154200
aI154200
aI153900
aI154100
aI154400
aI154500
aI154900
aI154900
aI155300
aI155200
aI154800
aI154800
aI154700
aI154600
aI154600
aI154700
aI154800
aI154900
aI154200
aI153900
aI154700
aI154900
aI154500
aI154600
aI154400
aI154900
aI154900
aI155500
aI154900
aI154700
aI156000
aI156200
aI154200
aI153800
aI153600
aI153100
aI153500
aI152800
aI152600
aI152900
aI152800
aI152500
aI152600
aI152500
aI152400
aI152500
aI152600
aI152400
aI152600
aI152400
aI152400
aI152500
aI152800
aI152900
aI152900
aI152400
aI152200
aI152000
aI152500
aI152600
aI152600
aI152600
aI152800
aI152700
aI152600
aI153300
aI153800
aI154100
aI154300
aI154400
aI154200
aI154400
aI154100
aI154200
aI154000
aI154200
aI154200
aI154400
aI154200
aI154000
aI154100
aI154000
aI153700
aI154000
aI153900
aI153700
aI154300
aI152700
aI152600
aI152800
aI152800
aI152800
aI153000
aI152900
aI152600
aI152700
aI152700
aI152800
aI152900
aI152900
aI152900
aI152600
aI152400
aI152500
aI152700
aI152300
aI152700
aI153100
aI153100
aI152200
aI153100
aI153100
aI153200
aI153200
aI152900
aI152700
aI153100
aI153700
aI153800
aI154300
aI154200
aI154200
aI154300
aI154200
aI154500
aI154100
aI153300
aI153200
aI153300
aI152900
aI153200
aI153400
aI153700
aI153400
aI153400
aI153200
aI153000
aI153100
aI152700
aI152300
aI152600
aI153300
aI153300
aI153200
aI153100
aI153600
aI153600
aI153700
aI153200
aI153500
aI154200
aI154300
aI154900
aI154800
aI155000
aI154900
aI155000
aI155400
aI155300
aI155100
aI154900
aI154800
aI154500
aI154500
aI154500
aI154600
aI154600
aI154700
aI154300
aI154500
aI154200
aI154400
aI155200
aI155500
aI156000
aI156100
aI156300
aI156500
aI155800
aI155700
aI155900
aI155500
aI155000
aI154900
aI155000
aI155000
aI155300
aI155200
aI155400
aI156000
aI156000
aI155400
aI155200
aI155700
aI155400
aI155700
aI155600
aI155500
aI154700
aI154300
aI154400
aI153600
aI153000
aI152600
aI152500
aI152600
aI152200
aI152400
aI152700
aI153000
aI153100
aI153100
aI152900
aI152900
aI152900
aI153000
aI153000
aI152600
aI151700
aI151900
aI151200
aI151600
aI151600
aI151500
aI151600
aI151600
aI151900
aI151000
aI149900
aI149600
aI148700
aI149300
aI149700
aI150100
aI148100
aI150200
aI150800
aI153600
aI153300
aI153600
aI153400
aI153600
aI153600
aI153600
aI153800
aI153900
aI153900
aI154100
aI153900
aI154000
aI153400
aI153600
aI153400
aI154700
aI155200
aI155300
aI155800
aI155900
aI155700
aI155700
aI155700
aI155700
aI157700
aI157400
aI157100
aI157300
aI157300
aI156500
aI156500
aI156200
aI156000
aI156300
aI155500
aI155700
aI155800
aI155900
aI155800
aI156000
aI156100
aI155900
aI155200
aI155000
aI155100
aI155000
aI155100
aI155200
aI155000
aI155300
aI155300
aI155300
aI155200
aI155400
aI155600
aI155600
aI155600
aI155900
aI155700
aI155700
aI155200
aI154700
aI154700
aI155000
aI154700
aI155100
aI154700
aI155000
aI154500
aI155700
aI155700
aI155800
aI156200
aI156600
aI156400
aI156200
aI155600
aI154400
aI154600
aI153800
aI154500
aI153900
aI153700
aI153500
aI152600
aI152700
aI153600
aI153800
aI154000
aI154000
aI153800
aI153900
aI157100
aI156900
aI157100
aI157200
aI156200
aI157300
aI158500
aI157600
aI159200
aI159600
aI159400
aI157600
aI156900
a.